; Function Attrs: mustprogress nofree norecurse nosync nounwind willreturn memory(read, inaccessiblemem: none) uwtable
define dso_local range(i64 0, -9223372036854775808) i64 @PyType_GetTypeDataSize(ptr noundef readonly captures(none) %0) local_unnamed_addr #4 {
  %2 = getelementptr inbounds nuw i8, ptr %0, i64 32
  %3 = load i64, ptr %2, align 8, !tbaa !232
  %4 = getelementptr inbounds nuw i8, ptr %0, i64 256
  %5 = load ptr, ptr %4, align 8, !tbaa !237
  %6 = getelementptr inbounds nuw i8, ptr %5, i64 32
  %7 = load i64, ptr %6, align 8, !tbaa !232
  %8 = add i64 %7, 15
  %9 = and i64 %8, -16
  %10 = sub i64 %3, %9
  %. = tail call i64 @llvm.smax.i64(i64 %10, i64 0)
  ret i64 %.
}